ccopy_reg
_reconstructor
p0
(cpymavlink.dialects.v10.ardupilotmega
MAVLink_vibration_message
p1
c__builtin__
object
p2
Ntp3
Rp4
(dp5
S'_type'
p6
S'VIBRATION'
p7
sS'clipping_2'
p8
I0
sS'_msgbuf'
p9
carray
array
p10
(S'B'
p11
(lp12
I254
aI32
aI120
aI1
aI1
aI241
aI211
aI241
aI121
aI145
aI0
aI0
aI0
aI0
aI95
aI108
aI179
aI60
aI50
aI230
aI179
aI60
aI62
aI55
aI234
aI60
aI0
aI0
aI0
aI0
aI0
aI0
aI0
aI0
aI0
aI0
aI0
aI0
aI138
aI136
atp13
Rp14
sS'_payload'
p15
g10
(g11
(lp16
I211
aI241
aI121
aI145
aI0
aI0
aI0
aI0
aI95
aI108
aI179
aI60
aI50
aI230
aI179
aI60
aI62
aI55
aI234
aI60
aI0
aI0
aI0
aI0
aI0
aI0
aI0
aI0
aI0
aI0
aI0
aI0
atp17
Rp18
sS'vibration_x'
p19
F0.021902261301875114
sS'vibration_y'
p20
F0.02196035161614418
sS'vibration_z'
p21
F0.028590794652700424
sS'_header'
p22
g0
(cpymavlink.dialects.v10.ardupilotmega
MAVLink_header
p23
g2
Ntp24
Rp25
(dp26
S'incompat_flags'
p27
I0
sS'srcSystem'
p28
I1
sS'mlen'
p29
I32
sS'seq'
p30
I120
sS'msgId'
p31
I241
sS'srcComponent'
p32
I1
sS'compat_flags'
p33
I0
sbsS'clipping_1'
p34
I0
sS'_timestamp'
p35
F1582907588.639444
sS'_fieldnames'
p36
(lp37
S'time_usec'
p38
ag19
ag20
ag21
aS'clipping_0'
p39
ag34
ag8
asS'_link_id'
p40
NsS'_posted'
p41
I01
sS'_signed'
p42
I00
sg39
I0
sg38
I2440688083
sS'_crc'
p43
I34954
sb.